   1              		.syntax unified
   2              		.cpu cortex-m4
   3              		.eabi_attribute 27, 3
   4              		.fpu fpv4-sp-d16
   5              		.eabi_attribute 20, 1
   6              		.eabi_attribute 21, 1
   7              		.eabi_attribute 23, 3
   8              		.eabi_attribute 24, 1
   9              		.eabi_attribute 25, 1
  10              		.eabi_attribute 26, 1
  11              		.eabi_attribute 30, 6
  12              		.eabi_attribute 34, 1
  13              		.eabi_attribute 18, 4
  14              		.thumb
  15              		.file	"Main.c"
  16              		.text
  17              	.Ltext0:
  18              		.cfi_sections	.debug_frame
  19              		.comm	CanRecMsgObj,24,4
  20              		.section	.text.CAN0_1_IRQHandler,"ax",%progbits
  21              		.align	2
  22              		.global	CAN0_1_IRQHandler
  23              		.thumb
  24              		.thumb_func
  26              	CAN0_1_IRQHandler:
  27              	.LFB112:
  28              		.file 1 "../Main.c"
   1:../Main.c     **** /*
   2:../Main.c     ****  * Main.c
   3:../Main.c     ****  *
   4:../Main.c     ****  *  Created on: 2013-12-13
   5:../Main.c     ****  *      Author: Administrator
   6:../Main.c     ****  */
   7:../Main.c     **** 
   8:../Main.c     **** 
   9:../Main.c     **** 
  10:../Main.c     **** 
  11:../Main.c     **** 
  12:../Main.c     **** #include <DAVE3.h>			//Declarations from DAVE3 Code Generation (includes SFR declaration)
  13:../Main.c     **** CAN001_MessageHandleType CanRecMsgObj;
  14:../Main.c     **** //uint8_t *Data1;
  15:../Main.c     **** 
  16:../Main.c     **** void can_receive(void)
  17:../Main.c     **** {
  29              		.loc 1 17 0
  30              		.cfi_startproc
  31              		@ args = 0, pretend = 0, frame = 0
  32              		@ frame_needed = 1, uses_anonymous_args = 0
  33 0000 80B5     		push	{r7, lr}
  34              	.LCFI0:
  35              		.cfi_def_cfa_offset 8
  36              		.cfi_offset 7, -8
  37              		.cfi_offset 14, -4
  38 0002 00AF     		add	r7, sp, #0
  39              	.LCFI1:
  40              		.cfi_def_cfa_register 7
  18:../Main.c     **** 	if(CAN001_GetMOFlagStatus(&CAN001_Handle0,1,RECEIVE_PENDING)== CAN_SET)
  41              		.loc 1 18 0
  42 0004 40F20000 		movw	r0, #:lower16:CAN001_Handle0
  43 0008 C0F20000 		movt	r0, #:upper16:CAN001_Handle0
  44 000c 4FF00101 		mov	r1, #1
  45 0010 4FF00102 		mov	r2, #1
  46 0014 FFF7FEFF 		bl	CAN001_GetMOFlagStatus
  47 0018 0346     		mov	r3, r0
  48 001a 012B     		cmp	r3, #1
  49 001c 28D1     		bne	.L1
  19:../Main.c     **** 	{
  20:../Main.c     **** 		CAN001_ClearMOFlagStatus(&CAN001_Handle0,1,RECEIVE_PENDING);
  50              		.loc 1 20 0
  51 001e 40F20000 		movw	r0, #:lower16:CAN001_Handle0
  52 0022 C0F20000 		movt	r0, #:upper16:CAN001_Handle0
  53 0026 4FF00101 		mov	r1, #1
  54 002a 4FF00102 		mov	r2, #1
  55 002e FFF7FEFF 		bl	CAN001_ClearMOFlagStatus
  21:../Main.c     **** 		CAN001_ReadMsgObj(&CAN001_Handle0,&CanRecMsgObj,1);
  56              		.loc 1 21 0
  57 0032 40F20000 		movw	r0, #:lower16:CAN001_Handle0
  58 0036 C0F20000 		movt	r0, #:upper16:CAN001_Handle0
  59 003a 40F20001 		movw	r1, #:lower16:CanRecMsgObj
  60 003e C0F20001 		movt	r1, #:upper16:CanRecMsgObj
  61 0042 4FF00102 		mov	r2, #1
  62 0046 FFF7FEFF 		bl	CAN001_ReadMsgObj
  22:../Main.c     **** 		CAN001_UpdateMODataRegisters(&CAN001_Handle0,2,8,CanRecMsgObj.data);
  63              		.loc 1 22 0
  64 004a 40F20000 		movw	r0, #:lower16:CAN001_Handle0
  65 004e C0F20000 		movt	r0, #:upper16:CAN001_Handle0
  66 0052 4FF00201 		mov	r1, #2
  67 0056 4FF00802 		mov	r2, #8
  68 005a 064B     		ldr	r3, .L3
  69 005c FFF7FEFF 		bl	CAN001_UpdateMODataRegisters
  23:../Main.c     **** 		CAN001_SendDataFrame(&CAN001_Handle0,2);
  70              		.loc 1 23 0
  71 0060 40F20000 		movw	r0, #:lower16:CAN001_Handle0
  72 0064 C0F20000 		movt	r0, #:upper16:CAN001_Handle0
  73 0068 4FF00201 		mov	r1, #2
  74 006c FFF7FEFF 		bl	CAN001_SendDataFrame
  75              	.L1:
  24:../Main.c     **** 	}
  25:../Main.c     **** 
  26:../Main.c     **** }
  76              		.loc 1 26 0
  77 0070 80BD     		pop	{r7, pc}
  78              	.L4:
  79 0072 00BF     		.align	2
  80              	.L3:
  81 0074 0B000000 		.word	CanRecMsgObj+11
  82              		.cfi_endproc
  83              	.LFE112:
  85              		.section	.text.main,"ax",%progbits
  86              		.align	2
  87              		.global	main
  88              		.thumb
  89              		.thumb_func
  91              	main:
  92              	.LFB113:
  27:../Main.c     **** 
  28:../Main.c     **** int main(void)
  29:../Main.c     **** {
  93              		.loc 1 29 0
  94              		.cfi_startproc
  95              		@ args = 0, pretend = 0, frame = 8
  96              		@ frame_needed = 1, uses_anonymous_args = 0
  97 0000 80B5     		push	{r7, lr}
  98              	.LCFI2:
  99              		.cfi_def_cfa_offset 8
 100              		.cfi_offset 7, -8
 101              		.cfi_offset 14, -4
 102 0002 82B0     		sub	sp, sp, #8
 103              	.LCFI3:
 104              		.cfi_def_cfa_offset 16
 105 0004 00AF     		add	r7, sp, #0
 106              	.LCFI4:
 107              		.cfi_def_cfa_register 7
  30:../Main.c     **** //	status_t status;		// Declaration of return variable for DAVE3 APIs (toggle comment if required)
  31:../Main.c     **** 
  32:../Main.c     **** 
  33:../Main.c     **** 	DAVE_Init();			// Initialization of DAVE Apps
 108              		.loc 1 33 0
 109 0006 FFF7FEFF 		bl	DAVE_Init
 110              	.L10:
 111              	.LBB2:
  34:../Main.c     **** 
  35:../Main.c     **** 
  36:../Main.c     **** 	while(1)
  37:../Main.c     **** 	{
  38:../Main.c     **** 
  39:../Main.c     **** 		for(int i=0;i<1000;i++)
 112              		.loc 1 39 0
 113 000a 4FF00003 		mov	r3, #0
 114 000e 7B60     		str	r3, [r7, #4]
 115 0010 10E0     		b	.L6
 116              	.L9:
 117              	.LBB3:
  40:../Main.c     **** 			for(int j=0;j<10000;j++);
 118              		.loc 1 40 0
 119 0012 4FF00003 		mov	r3, #0
 120 0016 3B60     		str	r3, [r7, #0]
 121 0018 03E0     		b	.L7
 122              	.L8:
 123              		.loc 1 40 0 is_stmt 0 discriminator 2
 124 001a 3B68     		ldr	r3, [r7, #0]
 125 001c 03F10103 		add	r3, r3, #1
 126 0020 3B60     		str	r3, [r7, #0]
 127              	.L7:
 128              		.loc 1 40 0 discriminator 1
 129 0022 3A68     		ldr	r2, [r7, #0]
 130 0024 42F20F73 		movw	r3, #9999
 131 0028 9A42     		cmp	r2, r3
 132 002a F6DD     		ble	.L8
 133              	.LBE3:
  39:../Main.c     **** 		for(int i=0;i<1000;i++)
 134              		.loc 1 39 0 is_stmt 1
 135 002c 7B68     		ldr	r3, [r7, #4]
 136 002e 03F10103 		add	r3, r3, #1
 137 0032 7B60     		str	r3, [r7, #4]
 138              	.L6:
  39:../Main.c     **** 		for(int i=0;i<1000;i++)
 139              		.loc 1 39 0 is_stmt 0 discriminator 1
 140 0034 7A68     		ldr	r2, [r7, #4]
 141 0036 40F2E733 		movw	r3, #999
 142 003a 9A42     		cmp	r2, r3
 143 003c E9DD     		ble	.L9
 144              	.LBE2:
  41:../Main.c     **** 	}
 145              		.loc 1 41 0 is_stmt 1
 146 003e E4E7     		b	.L10
 147              		.cfi_endproc
 148              	.LFE113:
 150              		.text
 151              	.Letext0:
 152              		.file 2 "c:\\dave-3.1.8\\dave-3.1.8\\arm-gcc\\bin\\../lib/gcc/arm-none-eabi/4.7.4/../../../../arm-
 153              		.file 3 "C:\\DAVE-3.1.8\\DAVE-3.1.8\\eclipse\\/../CMSIS/Infineon/XMC4500_series/Include/XMC4500.h"
 154              		.file 4 "D:\\DAVE3_workspace\\ws\\jjj\\Dave\\Generated\\inc\\DAVESupport/../../inc/CAN001/CAN_Type
 155              		.file 5 "D:\\DAVE3_workspace\\ws\\jjj\\Dave\\Generated\\inc\\DAVESupport/../../inc/CAN001/CAN001.h
 156              		.file 6 "C:\\DAVE-3.1.8\\DAVE-3.1.8\\eclipse\\/../CMSIS/Include/core_cm4.h"
 157              		.file 7 "D:\\DAVE3_workspace\\ws\\jjj\\Dave\\Generated\\inc\\DAVESupport/../../inc/CAN001/CAN001_C