   1              		.syntax unified
   2              		.cpu cortex-m4
   3              		.eabi_attribute 27, 3
   4              		.fpu fpv4-sp-d16
   5              		.eabi_attribute 20, 1
   6              		.eabi_attribute 21, 1
   7              		.eabi_attribute 23, 3
   8              		.eabi_attribute 24, 1
   9              		.eabi_attribute 25, 1
  10              		.eabi_attribute 26, 1
  11              		.eabi_attribute 30, 6
  12              		.eabi_attribute 34, 1
  13              		.eabi_attribute 18, 4
  14              		.thumb
  15              		.file	"MULTIPLEXER.c"
  16              		.text
  17              	.Ltext0:
  18              		.cfi_sections	.debug_frame
  19              		.section	.text.DAVE_MUX_Init,"ax",%progbits
  20              		.align	2
  21              		.global	DAVE_MUX_Init
  22              		.thumb
  23              		.thumb_func
  25              	DAVE_MUX_Init:
  26              	.LFB112:
  27              		.file 1 "../Dave/Generated/src/DAVESupport/MULTIPLEXER.c"
   1:../Dave/Generated/src/DAVESupport/MULTIPLEXER.c **** /*******************************************************************************
   2:../Dave/Generated/src/DAVESupport/MULTIPLEXER.c **** **  DAVE App Name : DAVESupport       App Version: 1.0.38               
   3:../Dave/Generated/src/DAVESupport/MULTIPLEXER.c **** **  This file is generated by DAVE, User modification to this file will be    **
   4:../Dave/Generated/src/DAVESupport/MULTIPLEXER.c **** **  overwritten at the next code generation.                                  **
   5:../Dave/Generated/src/DAVESupport/MULTIPLEXER.c **** *******************************************************************************/
   6:../Dave/Generated/src/DAVESupport/MULTIPLEXER.c **** 
   7:../Dave/Generated/src/DAVESupport/MULTIPLEXER.c **** 
   8:../Dave/Generated/src/DAVESupport/MULTIPLEXER.c **** /*******************************************************************************
   9:../Dave/Generated/src/DAVESupport/MULTIPLEXER.c ****  Copyright (c) 2011, Infineon Technologies AG                                 **
  10:../Dave/Generated/src/DAVESupport/MULTIPLEXER.c ****  All rights reserved.                                                         **
  11:../Dave/Generated/src/DAVESupport/MULTIPLEXER.c ****                                                                               **
  12:../Dave/Generated/src/DAVESupport/MULTIPLEXER.c ****  Redistribution and use in source and binary forms, with or without           **
  13:../Dave/Generated/src/DAVESupport/MULTIPLEXER.c ****  modification,are permitted provided that the following conditions are met:   **
  14:../Dave/Generated/src/DAVESupport/MULTIPLEXER.c ****                                                                               **
  15:../Dave/Generated/src/DAVESupport/MULTIPLEXER.c ****  *Redistributions of source code must retain the above copyright notice,      **
  16:../Dave/Generated/src/DAVESupport/MULTIPLEXER.c ****  this list of conditions and the following disclaimer.                        **
  17:../Dave/Generated/src/DAVESupport/MULTIPLEXER.c ****  *Redistributions in binary form must reproduce the above copyright notice,   **
  18:../Dave/Generated/src/DAVESupport/MULTIPLEXER.c ****  this list of conditions and the following disclaimer in the documentation    **
  19:../Dave/Generated/src/DAVESupport/MULTIPLEXER.c ****  and/or other materials provided with the distribution.                       **
  20:../Dave/Generated/src/DAVESupport/MULTIPLEXER.c ****  *Neither the name of the copyright holders nor the names of its contributors **
  21:../Dave/Generated/src/DAVESupport/MULTIPLEXER.c ****  may be used to endorse or promote products derived from this software without**
  22:../Dave/Generated/src/DAVESupport/MULTIPLEXER.c ****  specific prior written permission.                                           **
  23:../Dave/Generated/src/DAVESupport/MULTIPLEXER.c ****                                                                               **
  24:../Dave/Generated/src/DAVESupport/MULTIPLEXER.c ****  THIS SOFTWARE IS PROVIDED BY THE COPYRIGHT HOLDERS AND CONTRIBUTORS "AS IS"  **
  25:../Dave/Generated/src/DAVESupport/MULTIPLEXER.c ****  AND ANY EXPRESS OR IMPLIED WARRANTIES, INCLUDING, BUT NOT LIMITED TO, THE    **
  26:../Dave/Generated/src/DAVESupport/MULTIPLEXER.c ****  IMPLIED WARRANTIES OF MERCHANTABILITY AND FITNESS FOR A PARTICULAR PURPOSE   **
  27:../Dave/Generated/src/DAVESupport/MULTIPLEXER.c ****  ARE  DISCLAIMED. IN NO EVENT SHALL THE COPYRIGHT HOLDER OR CONTRIBUTORS BE   **
  28:../Dave/Generated/src/DAVESupport/MULTIPLEXER.c ****  LIABLE  FOR ANY DIRECT, INDIRECT, INCIDENTAL, SPECIAL, EXEMPLARY, OR         **
  29:../Dave/Generated/src/DAVESupport/MULTIPLEXER.c ****  CONSEQUENTIAL DAMAGES (INCLUDING, BUT NOT LIMITED TO, PROCUREMENT OF         **
  30:../Dave/Generated/src/DAVESupport/MULTIPLEXER.c ****  SUBSTITUTE GOODS OR  SERVICES; LOSS OF USE, DATA, OR PROFITS; OR BUSINESS    **
  31:../Dave/Generated/src/DAVESupport/MULTIPLEXER.c ****  INTERRUPTION) HOWEVER CAUSED AND ON ANY THEORY OF LIABILITY, WHETHER IN      **
  32:../Dave/Generated/src/DAVESupport/MULTIPLEXER.c ****  CONTRACT, STRICT LIABILITY,OR TORT (INCLUDING NEGLIGENCE OR OTHERWISE)       **
  33:../Dave/Generated/src/DAVESupport/MULTIPLEXER.c ****  ARISING IN ANY WAY OUT OF THE USE OF THIS SOFTWARE, EVEN IF ADVISED OF THE   **
  34:../Dave/Generated/src/DAVESupport/MULTIPLEXER.c ****  POSSIBILITY OF SUCH DAMAGE.                                                  **
  35:../Dave/Generated/src/DAVESupport/MULTIPLEXER.c ****                                                                               **
  36:../Dave/Generated/src/DAVESupport/MULTIPLEXER.c ****  To improve the quality of the software, users are encouraged to share        **
  37:../Dave/Generated/src/DAVESupport/MULTIPLEXER.c ****  modifications, enhancements or bug fixes with Infineon Technologies AG       **
  38:../Dave/Generated/src/DAVESupport/MULTIPLEXER.c ****  dave@infineon.com).                                                          **
  39:../Dave/Generated/src/DAVESupport/MULTIPLEXER.c ****                                                                               **
  40:../Dave/Generated/src/DAVESupport/MULTIPLEXER.c **** ********************************************************************************
  41:../Dave/Generated/src/DAVESupport/MULTIPLEXER.c **** **                                                                            **
  42:../Dave/Generated/src/DAVESupport/MULTIPLEXER.c **** **                                                                            **
  43:../Dave/Generated/src/DAVESupport/MULTIPLEXER.c **** ** PLATFORM : Infineon <Microcontroller name, step>                           **
  44:../Dave/Generated/src/DAVESupport/MULTIPLEXER.c **** **                                                                            **
  45:../Dave/Generated/src/DAVESupport/MULTIPLEXER.c **** ** COMPILER : Compiler Independent                                            **
  46:../Dave/Generated/src/DAVESupport/MULTIPLEXER.c **** **                                                                            **
  47:../Dave/Generated/src/DAVESupport/MULTIPLEXER.c **** ** MODIFICATION DATE : September 06, 2013                                     **
  48:../Dave/Generated/src/DAVESupport/MULTIPLEXER.c **** **                                                                            **
  49:../Dave/Generated/src/DAVESupport/MULTIPLEXER.c **** *******************************************************************************/
  50:../Dave/Generated/src/DAVESupport/MULTIPLEXER.c **** /**
  51:../Dave/Generated/src/DAVESupport/MULTIPLEXER.c ****  * @file  MULTIPLEXER.c
  52:../Dave/Generated/src/DAVESupport/MULTIPLEXER.c ****  *
  53:../Dave/Generated/src/DAVESupport/MULTIPLEXER.c ****  * @brief This file contains implementation of DAVE Support function which 
  54:../Dave/Generated/src/DAVESupport/MULTIPLEXER.c ****  * uses to configure multiplexer register values.
  55:../Dave/Generated/src/DAVESupport/MULTIPLEXER.c ****  * 24 July 2013 v1.0.34 Initial Version
  56:../Dave/Generated/src/DAVESupport/MULTIPLEXER.c ****  * 06 sep 2013 v1.0.36  UART001 : Mux : One instruction for output pins 
  57:../Dave/Generated/src/DAVESupport/MULTIPLEXER.c ****  *                      initialisation.
  58:../Dave/Generated/src/DAVESupport/MULTIPLEXER.c ****  *                      CAN001 & CAN002 : Avoid twice reset of the INIT bit in 
  59:../Dave/Generated/src/DAVESupport/MULTIPLEXER.c ****  *                      Can001_lNodeInit & DAVE_MUX_Init.
  60:../Dave/Generated/src/DAVESupport/MULTIPLEXER.c ****  *                      WR_REGHIB Macro definition has been changed.
  61:../Dave/Generated/src/DAVESupport/MULTIPLEXER.c ****  *                       
  62:../Dave/Generated/src/DAVESupport/MULTIPLEXER.c ****  *                      
  63:../Dave/Generated/src/DAVESupport/MULTIPLEXER.c ****  */
  64:../Dave/Generated/src/DAVESupport/MULTIPLEXER.c **** 
  65:../Dave/Generated/src/DAVESupport/MULTIPLEXER.c **** /*******************************************************************************
  66:../Dave/Generated/src/DAVESupport/MULTIPLEXER.c **** **                      Include Files                                         **
  67:../Dave/Generated/src/DAVESupport/MULTIPLEXER.c **** *******************************************************************************/
  68:../Dave/Generated/src/DAVESupport/MULTIPLEXER.c **** #include "../../inc/DAVESupport/DAVE3.h"
  69:../Dave/Generated/src/DAVESupport/MULTIPLEXER.c **** 
  70:../Dave/Generated/src/DAVESupport/MULTIPLEXER.c **** /*******************************************************************************
  71:../Dave/Generated/src/DAVESupport/MULTIPLEXER.c **** **                 Function declarations                                     **
  72:../Dave/Generated/src/DAVESupport/MULTIPLEXER.c **** *******************************************************************************/
  73:../Dave/Generated/src/DAVESupport/MULTIPLEXER.c **** /*******************************************************************************
  74:../Dave/Generated/src/DAVESupport/MULTIPLEXER.c **** ** Syntax           : void DAVE_MUX_Init(void)                                **
  75:../Dave/Generated/src/DAVESupport/MULTIPLEXER.c **** **                                                                            **
  76:../Dave/Generated/src/DAVESupport/MULTIPLEXER.c **** ** Reentrancy       : None                                                    **
  77:../Dave/Generated/src/DAVESupport/MULTIPLEXER.c **** **                                                                            **
  78:../Dave/Generated/src/DAVESupport/MULTIPLEXER.c **** ** Parameters (in)  : void                                                    **
  79:../Dave/Generated/src/DAVESupport/MULTIPLEXER.c **** **                                                                            **
  80:../Dave/Generated/src/DAVESupport/MULTIPLEXER.c **** ** Parameters (out) : none                                                    **
  81:../Dave/Generated/src/DAVESupport/MULTIPLEXER.c **** **                                                                            **
  82:../Dave/Generated/src/DAVESupport/MULTIPLEXER.c **** ** Return value     : none                                                    **
  83:../Dave/Generated/src/DAVESupport/MULTIPLEXER.c **** **                                                                            **
  84:../Dave/Generated/src/DAVESupport/MULTIPLEXER.c **** ** Description      : This is the Mux configuration                           **
  85:../Dave/Generated/src/DAVESupport/MULTIPLEXER.c **** **                                                                            **
  86:../Dave/Generated/src/DAVESupport/MULTIPLEXER.c **** *******************************************************************************/
  87:../Dave/Generated/src/DAVESupport/MULTIPLEXER.c ****            
  88:../Dave/Generated/src/DAVESupport/MULTIPLEXER.c **** void DAVE_MUX_Init(void)
  89:../Dave/Generated/src/DAVESupport/MULTIPLEXER.c **** {              	         
  28              		.loc 1 89 0
  29              		.cfi_startproc
  30              		@ args = 0, pretend = 0, frame = 0
  31              		@ frame_needed = 1, uses_anonymous_args = 0
  32              		@ link register save eliminated.
  33 0000 80B4     		push	{r7}
  34              	.LCFI0:
  35              		.cfi_def_cfa_offset 4
  36              		.cfi_offset 7, -4
  37 0002 00AF     		add	r7, sp, #0
  38              	.LCFI1:
  39              		.cfi_def_cfa_register 7
  90:../Dave/Generated/src/DAVESupport/MULTIPLEXER.c ****                                      
  91:../Dave/Generated/src/DAVESupport/MULTIPLEXER.c ****        /*        SCU Macro definitions     */                        
  92:../Dave/Generated/src/DAVESupport/MULTIPLEXER.c **** /*
  93:../Dave/Generated/src/DAVESupport/MULTIPLEXER.c ****  * CAN peripheral configuration:
  94:../Dave/Generated/src/DAVESupport/MULTIPLEXER.c ****  */                                      
  95:../Dave/Generated/src/DAVESupport/MULTIPLEXER.c ****     //Message object 0 configuration:
  96:../Dave/Generated/src/DAVESupport/MULTIPLEXER.c ****     
  97:../Dave/Generated/src/DAVESupport/MULTIPLEXER.c ****     WR_REG(CAN_MO0->MOIPR, CAN_MO_MOIPR_RXINP_Msk, CAN_MO_MOIPR_RXINP_Pos, SRN1);
  40              		.loc 1 97 0
  41 0004 4FF4A043 		mov	r3, #20480
  42 0008 C4F60103 		movt	r3, 18433
  43 000c 4FF4A042 		mov	r2, #20480
  44 0010 C4F60102 		movt	r2, 18433
  45 0014 9268     		ldr	r2, [r2, #8]
  46 0016 22F00702 		bic	r2, r2, #7
  47 001a 42F00102 		orr	r2, r2, #1
  48 001e 9A60     		str	r2, [r3, #8]
  98:../Dave/Generated/src/DAVESupport/MULTIPLEXER.c ****                                                                                                    
  99:../Dave/Generated/src/DAVESupport/MULTIPLEXER.c ****     /* Macros which makes the CAN peripheral to exit from the INITIALISATION mode to NORMAL mode */
 100:../Dave/Generated/src/DAVESupport/MULTIPLEXER.c **** #ifdef CAN_NODE0_ENABLE
 101:../Dave/Generated/src/DAVESupport/MULTIPLEXER.c ****     CAN_Handle0_NODE();
  49              		.loc 1 101 0
  50 0020 4FF48843 		mov	r3, #17408
  51 0024 C4F60103 		movt	r3, 18433
  52 0028 4FF48842 		mov	r2, #17408
  53 002c C4F60102 		movt	r2, 18433
  54 0030 1268     		ldr	r2, [r2, #0]
  55 0032 22F04002 		bic	r2, r2, #64
  56 0036 1A60     		str	r2, [r3, #0]
  57 0038 4FF48843 		mov	r3, #17408
  58 003c C4F60103 		movt	r3, 18433
  59 0040 4FF48842 		mov	r2, #17408
  60 0044 C4F60102 		movt	r2, 18433
  61 0048 1268     		ldr	r2, [r2, #0]
  62 004a 22F00102 		bic	r2, r2, #1
  63 004e 1A60     		str	r2, [r3, #0]
 102:../Dave/Generated/src/DAVESupport/MULTIPLEXER.c **** #endif
 103:../Dave/Generated/src/DAVESupport/MULTIPLEXER.c **** #ifdef CAN_NODE1_ENABLE    
 104:../Dave/Generated/src/DAVESupport/MULTIPLEXER.c ****     CAN_Handle1_NODE();
 105:../Dave/Generated/src/DAVESupport/MULTIPLEXER.c **** #endif    
 106:../Dave/Generated/src/DAVESupport/MULTIPLEXER.c **** #ifdef CAN_NODE2_ENABLE    
 107:../Dave/Generated/src/DAVESupport/MULTIPLEXER.c ****     CAN_Handle2_NODE(); 
 108:../Dave/Generated/src/DAVESupport/MULTIPLEXER.c **** #endif             	         
 109:../Dave/Generated/src/DAVESupport/MULTIPLEXER.c ****                                                           	         
 110:../Dave/Generated/src/DAVESupport/MULTIPLEXER.c ****                                           
 111:../Dave/Generated/src/DAVESupport/MULTIPLEXER.c **** 
 112:../Dave/Generated/src/DAVESupport/MULTIPLEXER.c **** /*        PORT Macro definitions for IOCR_OE, IOCR_PCR & HWSEL_HW     */                           
 113:../Dave/Generated/src/DAVESupport/MULTIPLEXER.c ****   WR_REG(PORT1->IOCR8, 0xb800U, PORT_IOCR_PC1_PCR_Pos, 0x12U);                /*P1.9 : PORT1_IOCR8_
  64              		.loc 1 113 0
  65 0050 4FF40143 		mov	r3, #33024
  66 0054 C4F60203 		movt	r3, 18434
  67 0058 4FF40142 		mov	r2, #33024
  68 005c C4F60202 		movt	r2, 18434
  69 0060 9269     		ldr	r2, [r2, #24]
  70 0062 22F43842 		bic	r2, r2, #47104
  71 0066 42F41042 		orr	r2, r2, #36864
  72 006a 9A61     		str	r2, [r3, #24]
 114:../Dave/Generated/src/DAVESupport/MULTIPLEXER.c **** 					                  	         
 115:../Dave/Generated/src/DAVESupport/MULTIPLEXER.c ****                                               
 116:../Dave/Generated/src/DAVESupport/MULTIPLEXER.c **** }
  73              		.loc 1 116 0
  74 006c BD46     		mov	sp, r7
  75 006e 80BC     		pop	{r7}
  76 0070 7047     		bx	lr
  77              		.cfi_endproc
  78              	.LFE112:
  80 0072 00BF     		.section	.text.DAVE_MUX_PreInit,"ax",%progbits
  81              		.align	2
  82              		.global	DAVE_MUX_PreInit
  83              		.thumb
  84              		.thumb_func
  86              	DAVE_MUX_PreInit:
  87              	.LFB113:
 117:../Dave/Generated/src/DAVESupport/MULTIPLEXER.c **** 
 118:../Dave/Generated/src/DAVESupport/MULTIPLEXER.c **** 
 119:../Dave/Generated/src/DAVESupport/MULTIPLEXER.c **** /*******************************************************************************
 120:../Dave/Generated/src/DAVESupport/MULTIPLEXER.c **** ** Syntax           : void DAVE_MUX_PreInit(void)                             **
 121:../Dave/Generated/src/DAVESupport/MULTIPLEXER.c **** **                                                                            **
 122:../Dave/Generated/src/DAVESupport/MULTIPLEXER.c **** ** Reentrancy       : None                                                    **
 123:../Dave/Generated/src/DAVESupport/MULTIPLEXER.c **** **                                                                            **
 124:../Dave/Generated/src/DAVESupport/MULTIPLEXER.c **** ** Parameters (in)  : void                                                    **
 125:../Dave/Generated/src/DAVESupport/MULTIPLEXER.c **** **                                                                            **
 126:../Dave/Generated/src/DAVESupport/MULTIPLEXER.c **** ** Parameters (out) : none                                                    **
 127:../Dave/Generated/src/DAVESupport/MULTIPLEXER.c **** **                                                                            **
 128:../Dave/Generated/src/DAVESupport/MULTIPLEXER.c **** ** Return value     : none                                                    **
 129:../Dave/Generated/src/DAVESupport/MULTIPLEXER.c **** **                                                                            **
 130:../Dave/Generated/src/DAVESupport/MULTIPLEXER.c **** ** Description      : This is the Mux configuration                           **
 131:../Dave/Generated/src/DAVESupport/MULTIPLEXER.c **** **                                                                            **
 132:../Dave/Generated/src/DAVESupport/MULTIPLEXER.c **** *******************************************************************************/
 133:../Dave/Generated/src/DAVESupport/MULTIPLEXER.c ****  
 134:../Dave/Generated/src/DAVESupport/MULTIPLEXER.c **** void DAVE_MUX_PreInit(void)
 135:../Dave/Generated/src/DAVESupport/MULTIPLEXER.c **** {        
  88              		.loc 1 135 0
  89              		.cfi_startproc
  90              		@ args = 0, pretend = 0, frame = 0
  91              		@ frame_needed = 1, uses_anonymous_args = 0
  92              		@ link register save eliminated.
  93 0000 80B4     		push	{r7}
  94              	.LCFI2:
  95              		.cfi_def_cfa_offset 4
  96              		.cfi_offset 7, -4
  97 0002 00AF     		add	r7, sp, #0
  98              	.LCFI3:
  99              		.cfi_def_cfa_register 7
 136:../Dave/Generated/src/DAVESupport/MULTIPLEXER.c **** 
 137:../Dave/Generated/src/DAVESupport/MULTIPLEXER.c **** /*        PORT Macro definitions for IOCR_OE, IOCR_PCR & HWSEL_HW     */                       
 138:../Dave/Generated/src/DAVESupport/MULTIPLEXER.c **** }
 100              		.loc 1 138 0
 101 0004 BD46     		mov	sp, r7
 102 0006 80BC     		pop	{r7}
 103 0008 7047     		bx	lr
 104              		.cfi_endproc
 105              	.LFE113:
 107 000a 00BF     		.text
 108              	.Letext0:
 109              		.file 2 "c:\\dave-3.1.8\\dave-3.1.8\\arm-gcc\\bin\\../lib/gcc/arm-none-eabi/4.7.4/../../../../arm-
 110              		.file 3 "C:\\DAVE-3.1.8\\DAVE-3.1.8\\eclipse\\/../CMSIS/Infineon/XMC4500_series/Include/XMC4500.h"
 111              		.file 4 "C:\\DAVE-3.1.8\\DAVE-3.1.8\\eclipse\\/../CMSIS/Include/core_cm4.h"